; Function Attrs: nofree norecurse nosync nounwind memory(argmem: readwrite) uwtable
define internal void @dmix_add_c(ptr noundef captures(none) %0, ptr noundef readonly captures(none) %1, i32 noundef %2, i64 noundef %3) #3 {
  %5 = icmp sgt i64 %3, 0
  br i1 %5, label %.lr.ph, label %._crit_edge

.lr.ph:                                           ; preds = %4
  %6 = sext i32 %2 to i64
  br label %7

7:                                                ; preds = %.lr.ph, %7
  %indvars.iv = phi i64 [ 0, %.lr.ph ], [ %indvars.iv.next, %7 ]
  %8 = getelementptr inbounds nuw i32, ptr %1, i64 %indvars.iv
  %9 = load i32, ptr %8, align 4, !tbaa !23
  %10 = sext i32 %9 to i64
  %11 = mul nsw i64 %10, %6
  %12 = add nsw i64 %11, 16384
  %13 = lshr i64 %12, 15
  %14 = trunc i64 %13 to i32
  %15 = getelementptr inbounds nuw i32, ptr %0, i64 %indvars.iv
  %16 = load i32, ptr %15, align 4, !tbaa !23
  %17 = add i32 %16, %14
  store i32 %17, ptr %15, align 4, !tbaa !23
  %indvars.iv.next = add nuw nsw i64 %indvars.iv, 1
  %exitcond.not = icmp eq i64 %indvars.iv.next, %3
  br i1 %exitcond.not, label %._crit_edge, label %7, !llvm.loop !63

._crit_edge:                                      ; preds = %7, %4
  ret void
}